target datalayout = "e-m:e-p270:32:32-p271:32:32-p272:64:64-i64:64-i128:128-f80:128-n8:16:32:64-S128"
target triple = "x86_64-pc-linux-gnu"

%struct.sharedObjectsStruct = type { ptr, ptr, ptr, ptr, ptr, ptr, ptr, ptr, [4 x ptr], [4 x ptr], [4 x ptr], [4 x ptr], ptr, ptr, ptr, ptr, ptr, ptr, ptr, ptr, ptr, ptr, ptr, ptr, ptr, ptr, ptr, ptr, ptr, ptr, ptr, ptr, ptr, ptr, ptr, ptr, ptr, ptr, ptr, ptr, ptr, ptr, ptr, ptr, ptr, ptr, ptr, ptr, ptr, ptr, ptr, ptr, ptr, ptr, ptr, ptr, ptr, ptr, ptr, ptr, ptr, ptr, ptr, ptr, ptr, ptr, ptr, ptr, ptr, ptr, ptr, ptr, ptr, ptr, ptr, ptr, ptr, ptr, ptr, ptr, ptr, ptr, ptr, ptr, ptr, ptr, ptr, ptr, [10 x ptr], [10000 x ptr], [32 x ptr], [32 x ptr], [32 x ptr], [32 x ptr], ptr, ptr }
%struct.zlexrangespec = type { ptr, ptr, i32, i32 }

@.str.1 = private unnamed_addr constant [9 x i8] c"t_zset.c\00", align 1
@shared = external global %struct.sharedObjectsStruct, align 8
@.str.3 = private unnamed_addr constant [13 x i8] c"sptr != NULL\00", align 1

; Function Attrs: nounwind uwtable
define dso_local i32 @sdscmplex(ptr noundef %0, ptr noundef %1) #0 {
  %3 = alloca i32, align 4
  %4 = alloca ptr, align 8
  %5 = alloca ptr, align 8
  store ptr %0, ptr %4, align 8, !tbaa !11
  store ptr %1, ptr %5, align 8, !tbaa !11
  %6 = load ptr, ptr %4, align 8, !tbaa !11
  %7 = load ptr, ptr %5, align 8, !tbaa !11
  %8 = icmp eq ptr %6, %7
  br i1 %8, label %9, label %10

9:                                                ; preds = %2
  store i32 0, ptr %3, align 4
  br label %32

10:                                               ; preds = %2
  %11 = load ptr, ptr %4, align 8, !tbaa !11
  %12 = load ptr, ptr getelementptr inbounds nuw (%struct.sharedObjectsStruct, ptr @shared, i32 0, i32 94), align 8, !tbaa !89
  %13 = icmp eq ptr %11, %12
  br i1 %13, label %18, label %14

14:                                               ; preds = %10
  %15 = load ptr, ptr %5, align 8, !tbaa !11
  %16 = load ptr, ptr getelementptr inbounds nuw (%struct.sharedObjectsStruct, ptr @shared, i32 0, i32 95), align 8, !tbaa !87
  %17 = icmp eq ptr %15, %16
  br i1 %17, label %18, label %19

18:                                               ; preds = %14, %10
  store i32 -1, ptr %3, align 4
  br label %32

19:                                               ; preds = %14
  %20 = load ptr, ptr %4, align 8, !tbaa !11
  %21 = load ptr, ptr getelementptr inbounds nuw (%struct.sharedObjectsStruct, ptr @shared, i32 0, i32 95), align 8, !tbaa !87
  %22 = icmp eq ptr %20, %21
  br i1 %22, label %27, label %23

23:                                               ; preds = %19
  %24 = load ptr, ptr %5, align 8, !tbaa !11
  %25 = load ptr, ptr getelementptr inbounds nuw (%struct.sharedObjectsStruct, ptr @shared, i32 0, i32 94), align 8, !tbaa !89
  %26 = icmp eq ptr %24, %25
  br i1 %26, label %27, label %28

27:                                               ; preds = %23, %19
  store i32 1, ptr %3, align 4
  br label %32

28:                                               ; preds = %23
  %29 = load ptr, ptr %4, align 8, !tbaa !11
  %30 = load ptr, ptr %5, align 8, !tbaa !11
  %31 = call i32 @sdscmp(ptr noundef %29, ptr noundef %30)
  store i32 %31, ptr %3, align 4
  br label %32

32:                                               ; preds = %28, %27, %18, %9
  %33 = load i32, ptr %3, align 4
  ret i32 %33
}

; Function Attrs: nounwind uwtable
define dso_local i32 @zslLexValueGteMin(ptr noundef %0, ptr noundef %1) #0 {
  %3 = alloca ptr, align 8
  %4 = alloca ptr, align 8
  store ptr %0, ptr %3, align 8, !tbaa !11
  store ptr %1, ptr %4, align 8, !tbaa !45
  %5 = load ptr, ptr %4, align 8, !tbaa !45
  %6 = getelementptr inbounds nuw %struct.zlexrangespec, ptr %5, i32 0, i32 2
  %7 = load i32, ptr %6, align 8, !tbaa !68
  %8 = icmp ne i32 %7, 0
  br i1 %8, label %9, label %17

9:                                                ; preds = %2
  %10 = load ptr, ptr %3, align 8, !tbaa !11
  %11 = load ptr, ptr %4, align 8, !tbaa !45
  %12 = getelementptr inbounds nuw %struct.zlexrangespec, ptr %11, i32 0, i32 0
  %13 = load ptr, ptr %12, align 8, !tbaa !70
  %14 = call i32 @sdscmplex(ptr noundef %10, ptr noundef %13)
  %15 = icmp sgt i32 %14, 0
  %16 = zext i1 %15 to i32
  br label %25

17:                                               ; preds = %2
  %18 = load ptr, ptr %3, align 8, !tbaa !11
  %19 = load ptr, ptr %4, align 8, !tbaa !45
  %20 = getelementptr inbounds nuw %struct.zlexrangespec, ptr %19, i32 0, i32 0
  %21 = load ptr, ptr %20, align 8, !tbaa !70
  %22 = call i32 @sdscmplex(ptr noundef %18, ptr noundef %21)
  %23 = icmp sge i32 %22, 0
  %24 = zext i1 %23 to i32
  br label %25

25:                                               ; preds = %17, %9
  %26 = phi i32 [ %16, %9 ], [ %24, %17 ]
  ret i32 %26
}

; Function Attrs: nounwind uwtable
define dso_local ptr @lpGetObject(ptr noundef %0) #0 {
  %2 = alloca ptr, align 8
  %3 = alloca ptr, align 8
  %4 = alloca ptr, align 8
  %5 = alloca i32, align 4
  %6 = alloca i64, align 8
  %7 = alloca i32, align 4
  store ptr %0, ptr %3, align 8, !tbaa !11
  call void @llvm.lifetime.start.p0(i64 8, ptr %4) #12
  call void @llvm.lifetime.start.p0(i64 4, ptr %5) #12
  call void @llvm.lifetime.start.p0(i64 8, ptr %6) #12
  %8 = load ptr, ptr %3, align 8, !tbaa !11
  %9 = icmp ne ptr %8, null
  %10 = xor i1 %9, true
  %11 = xor i1 %10, true
  %12 = zext i1 %11 to i32
  %13 = sext i32 %12 to i64
  %14 = call i64 @llvm.expect.i64(i64 %13, i64 1)
  %15 = icmp ne i64 %14, 0
  br i1 %15, label %16, label %17

16:                                               ; preds = %1
  br label %19

17:                                               ; preds = %1
  call void @_serverAssert(ptr noundef @.str.3, ptr noundef @.str.1, i32 noundef 803)
  call void @abort() #14
  unreachable

18:                                               ; No predecessors!
  br label %19

19:                                               ; preds = %18, %16
  %20 = load ptr, ptr %3, align 8, !tbaa !11
  %21 = call ptr @lpGetValue(ptr noundef %20, ptr noundef %5, ptr noundef %6)
  store ptr %21, ptr %4, align 8, !tbaa !11
  %22 = load ptr, ptr %4, align 8, !tbaa !11
  %23 = icmp ne ptr %22, null
  br i1 %23, label %24, label %29

24:                                               ; preds = %19
  %25 = load ptr, ptr %4, align 8, !tbaa !11
  %26 = load i32, ptr %5, align 4, !tbaa !5
  %27 = zext i32 %26 to i64
  %28 = call ptr @sdsnewlen(ptr noundef %25, i64 noundef %27)
  store ptr %28, ptr %2, align 8
  store i32 1, ptr %7, align 4
  br label %32

29:                                               ; preds = %19
  %30 = load i64, ptr %6, align 8, !tbaa !99
  %31 = call ptr @sdsfromlonglong(i64 noundef %30)
  store ptr %31, ptr %2, align 8
  store i32 1, ptr %7, align 4
  br label %32

32:                                               ; preds = %29, %24
  call void @llvm.lifetime.end.p0(i64 8, ptr %6) #12
  call void @llvm.lifetime.end.p0(i64 4, ptr %5) #12
  call void @llvm.lifetime.end.p0(i64 8, ptr %4) #12
  %33 = load ptr, ptr %2, align 8
  ret ptr %33
}

; Function Attrs: nounwind uwtable
define dso_local i32 @zzlLexValueGteMin(ptr noundef %0, ptr noundef %1) #0 {
  %3 = alloca ptr, align 8
  %4 = alloca ptr, align 8
  %5 = alloca ptr, align 8
  %6 = alloca i32, align 4
  store ptr %0, ptr %3, align 8, !tbaa !11
  store ptr %1, ptr %4, align 8, !tbaa !45
  call void @llvm.lifetime.start.p0(i64 8, ptr %5) #12
  %7 = load ptr, ptr %3, align 8, !tbaa !11
  %8 = call ptr @lpGetObject(ptr noundef %7)
  store ptr %8, ptr %5, align 8, !tbaa !11
  call void @llvm.lifetime.start.p0(i64 4, ptr %6) #12
  %9 = load ptr, ptr %5, align 8, !tbaa !11
  %10 = load ptr, ptr %4, align 8, !tbaa !45
  %11 = call i32 @zslLexValueGteMin(ptr noundef %9, ptr noundef %10)
  store i32 %11, ptr %6, align 4, !tbaa !5
  %12 = load ptr, ptr %5, align 8, !tbaa !11
  call void @sdsfree(ptr noundef %12)
  %13 = load i32, ptr %6, align 4, !tbaa !5
  call void @llvm.lifetime.end.p0(i64 4, ptr %6) #12
  call void @llvm.lifetime.end.p0(i64 8, ptr %5) #12
  ret i32 %13
}