; Function Attrs: nounwind uwtable
define dso_local range(i32 0, 2) i32 @zzlLexValueGteMin(ptr noundef %0, ptr noundef readonly captures(none) %1) local_unnamed_addr #0 {
  %3 = alloca i32, align 4
  %4 = alloca i64, align 8
  call void @llvm.lifetime.start.p0(i64 4, ptr nonnull %3) #18
  call void @llvm.lifetime.start.p0(i64 8, ptr nonnull %4) #18
  %.not.i = icmp eq ptr %0, null
  br i1 %.not.i, label %5, label %6, !prof !40

5:                                                ; preds = %2
  tail call void @_serverAssert(ptr noundef nonnull @.str.3, ptr noundef nonnull @.str.1, i32 noundef 803) #18
  tail call void @abort() #19
  unreachable

6:                                                ; preds = %2
  %7 = call ptr @lpGetValue(ptr noundef nonnull %0, ptr noundef nonnull %3, ptr noundef nonnull %4) #18
  %.not7.i = icmp eq ptr %7, null
  br i1 %.not7.i, label %12, label %8

8:                                                ; preds = %6
  %9 = load i32, ptr %3, align 4, !tbaa !78
  %10 = zext i32 %9 to i64
  %11 = call ptr @sdsnewlen(ptr noundef nonnull %7, i64 noundef %10) #18
  br label %lpGetObject.exit

12:                                               ; preds = %6
  %13 = load i64, ptr %4, align 8, !tbaa !88
  %14 = call ptr @sdsfromlonglong(i64 noundef %13) #18
  br label %lpGetObject.exit

lpGetObject.exit:                                 ; preds = %8, %12
  %.0.i = phi ptr [ %11, %8 ], [ %14, %12 ]
  call void @llvm.lifetime.end.p0(i64 8, ptr nonnull %4) #18
  call void @llvm.lifetime.end.p0(i64 4, ptr nonnull %3) #18
  %15 = getelementptr inbounds nuw i8, ptr %1, i64 16
  %16 = load i32, ptr %15, align 8, !tbaa !58
  %.not.i4 = icmp eq i32 %16, 0
  %17 = load ptr, ptr %1, align 8, !tbaa !60
  %18 = icmp eq ptr %.0.i, %17
  br i1 %.not.i4, label %29, label %19

19:                                               ; preds = %lpGetObject.exit
  br i1 %18, label %zslLexValueGteMin.exit, label %20

20:                                               ; preds = %19
  %21 = load ptr, ptr getelementptr inbounds nuw (i8, ptr @shared, i64 81904), align 8, !tbaa !61
  %22 = icmp eq ptr %.0.i, %21
  br i1 %22, label %zslLexValueGteMin.exit, label %23

23:                                               ; preds = %20
  %24 = load ptr, ptr getelementptr inbounds nuw (i8, ptr @shared, i64 81912), align 8, !tbaa !64
  %25 = icmp eq ptr %17, %24
  br i1 %25, label %zslLexValueGteMin.exit, label %26

26:                                               ; preds = %23
  %27 = icmp eq ptr %.0.i, %24
  %28 = icmp eq ptr %17, %21
  %or.cond.i.i = or i1 %28, %27
  br i1 %or.cond.i.i, label %zslLexValueGteMin.exit, label %sdscmplex.exit.sink.split.i

29:                                               ; preds = %lpGetObject.exit
  br i1 %18, label %zslLexValueGteMin.exit, label %30

30:                                               ; preds = %29
  %31 = load ptr, ptr getelementptr inbounds nuw (i8, ptr @shared, i64 81904), align 8, !tbaa !61
  %32 = icmp eq ptr %.0.i, %31
  br i1 %32, label %zslLexValueGteMin.exit, label %33

33:                                               ; preds = %30
  %34 = load ptr, ptr getelementptr inbounds nuw (i8, ptr @shared, i64 81912), align 8, !tbaa !64
  %35 = icmp eq ptr %17, %34
  br i1 %35, label %zslLexValueGteMin.exit, label %36

36:                                               ; preds = %33
  %37 = icmp eq ptr %.0.i, %34
  %38 = icmp eq ptr %17, %31
  %or.cond.i5.i = or i1 %38, %37
  br i1 %or.cond.i5.i, label %zslLexValueGteMin.exit, label %sdscmplex.exit.sink.split.i

sdscmplex.exit.sink.split.i:                      ; preds = %36, %26
  %.sink8.i = phi i32 [ 0, %26 ], [ -1, %36 ]
  %39 = call i32 @sdscmp(ptr noundef %.0.i, ptr noundef %17) #18
  %40 = icmp sgt i32 %39, %.sink8.i
  %41 = zext i1 %40 to i32
  br label %zslLexValueGteMin.exit

zslLexValueGteMin.exit:                           ; preds = %19, %20, %23, %26, %29, %30, %33, %36, %sdscmplex.exit.sink.split.i
  %.in.i = phi i32 [ 0, %19 ], [ 0, %23 ], [ 0, %20 ], [ 1, %26 ], [ 1, %29 ], [ 0, %33 ], [ 0, %30 ], [ 1, %36 ], [ %41, %sdscmplex.exit.sink.split.i ]
  call void @sdsfree(ptr noundef %.0.i) #18
  ret i32 %.in.i
}